target datalayout = "e-m:e-p270:32:32-p271:32:32-p272:64:64-i64:64-i128:128-f80:128-n8:16:32:64-S128"
target triple = "x86_64-pc-linux-gnu"

%"class.llvm::StringRef" = type { ptr, i64 }
%"class.clang::targets::X86TargetInfo" = type { %"class.clang::TargetInfo.base", i32, i8, i32, i8, i8, i8, i8, i8, i8, i8, i8, i8, i8, i8, i8, i8, i8, i8, i8, i8, i8, i8, i8, i8, i8, i8, i8, i8, i8, i8, i8, i8, i8, i8, i8, i8, i8, i8, i8, i8, i8, i8, i8, i8, i8, i8, i8, i8, i8, i8, i8, i8, i8, i8, i8, i8, i8, i8, i8, i8, i8, i8, i8, i8, i8, i8, i8, i8, i8, i8, i8, i8, i8, i8, i8, i8, i8, i8, i8, i8, i8, i8, i8, i8, i8, i8, i8, i8, i8, i8, i8, i8, i8, i8, i8, i8, i8, i8, i8, i8, i8, i8, i8, i8, i32, i32 }
%"class.clang::TargetInfo.base" = type <{ ptr, %"struct.clang::TransferrableTargetInfo.base", %"class.llvm::RefCountedBase", %"class.std::shared_ptr", %"class.llvm::Triple", i8, i8, i8, i8, i8, i8, i8, i8, i8, i8, i8, i8, i8, i8, i8, i8, %"class.std::__cxx11::basic_string", ptr, ptr, i8, i8, [2 x i8], %"class.clang::TargetCXXABI", ptr, %"class.llvm::StringRef", %"class.llvm::VersionTuple", i32, i32, %"class.std::optional", %"class.std::optional.0", %"class.llvm::StringSet", i8 }>
%"struct.clang::TransferrableTargetInfo.base" = type <{ i8, i8, i8, i8, i8, i8, i8, i8, i8, i8, i8, i8, i8, i8, i8, i8, i8, i8, i8, i8, i8, i8, i8, i8, i8, [3 x i8], %"class.std::optional", i8, i8, i8, i8, i8, i8, i8, i8, i8, i8, i8, i8, i8, i8, i8, i8, i8, i8, i16, i16, [2 x i8], i32, i32, [4 x i8], ptr, ptr, ptr, ptr, ptr, ptr, ptr, i32, i32, i32, i32, i32, i32, i32, i32, i32, i32, i32, i32, i8, [3 x i8], i32, i32 }>
%"class.llvm::RefCountedBase" = type { i32 }
%"class.std::shared_ptr" = type { %"class.std::__shared_ptr" }
%"class.std::__shared_ptr" = type { ptr, %"class.std::__shared_count" }
%"class.std::__shared_count" = type { ptr }
%"class.llvm::Triple" = type { %"class.std::__cxx11::basic_string", i32, i32, i32, i32, i32, i32 }
%"class.std::__cxx11::basic_string" = type { %"struct.std::__cxx11::basic_string<char>::_Alloc_hider", i64, %union.anon }
%"struct.std::__cxx11::basic_string<char>::_Alloc_hider" = type { ptr }
%union.anon = type { i64, [8 x i8] }
%"class.clang::TargetCXXABI" = type { i32 }
%"class.llvm::VersionTuple" = type { i64, i64 }
%"class.std::optional" = type { %"struct.std::_Optional_base" }
%"struct.std::_Optional_base" = type { %"struct.std::_Optional_payload" }
%"struct.std::_Optional_payload" = type { %"struct.std::_Optional_payload_base.base", [3 x i8] }
%"struct.std::_Optional_payload_base.base" = type <{ %"union.std::_Optional_payload_base<unsigned int>::_Storage", i8 }>
%"union.std::_Optional_payload_base<unsigned int>::_Storage" = type { i32 }
%"class.std::optional.0" = type { %"struct.std::_Optional_base.1" }
%"struct.std::_Optional_base.1" = type { %"struct.std::_Optional_payload.3" }
%"struct.std::_Optional_payload.3" = type { %"struct.std::_Optional_payload.base.7", [7 x i8] }
%"struct.std::_Optional_payload.base.7" = type { %"struct.std::_Optional_payload_base.base.6" }
%"struct.std::_Optional_payload_base.base.6" = type <{ %"union.std::_Optional_payload_base<llvm::Triple>::_Storage", i8 }>
%"union.std::_Optional_payload_base<llvm::Triple>::_Storage" = type { %"class.llvm::Triple" }
%"class.llvm::StringSet" = type { %"class.llvm::StringMap" }
%"class.llvm::StringMap" = type { %"class.llvm::StringMapImpl" }
%"class.llvm::StringMapImpl" = type { ptr, i32, i32, i32, i32 }

@.str.1 = private unnamed_addr constant [4 x i8] c"sse\00", align 1
@.str.3 = private unnamed_addr constant [8 x i8] c"avx512f\00", align 1
@.str.26 = private unnamed_addr constant [4 x i8] c"avx\00", align 1
@.str.370 = private unnamed_addr constant [8 x i8] c"evex512\00", align 1

; Function Attrs: mustprogress nounwind uwtable
define linkonce_odr hidden noundef i64 @_ZNSt11char_traitsIcE6lengthEPKc(ptr noundef %0) #0 comdat align 2 {
  %2 = alloca ptr, align 8
  store ptr %0, ptr %2, align 8
  %3 = load ptr, ptr %2, align 8
  %4 = call i64 @strlen(ptr noundef %3) #13
  ret i64 %4
}

; Function Attrs: mustprogress nounwind uwtable
define linkonce_odr hidden void @_ZN4llvm9StringRefC2EPKc(ptr noundef nonnull align 8 dereferenceable(16) %0, ptr noundef %1) unnamed_addr #0 comdat align 2 {
  %3 = alloca ptr, align 8
  %4 = alloca ptr, align 8
  store ptr %0, ptr %3, align 8
  store ptr %1, ptr %4, align 8
  %5 = load ptr, ptr %3, align 8
  %6 = getelementptr inbounds nuw %"class.llvm::StringRef", ptr %5, i32 0, i32 0
  %7 = load ptr, ptr %4, align 8
  store ptr %7, ptr %6, align 8
  %8 = getelementptr inbounds nuw %"class.llvm::StringRef", ptr %5, i32 0, i32 1
  %9 = load ptr, ptr %4, align 8
  %10 = icmp ne ptr %9, null
  br i1 %10, label %11, label %14

11:                                               ; preds = %2
  %12 = load ptr, ptr %4, align 8
  %13 = call noundef i64 @_ZNSt11char_traitsIcE6lengthEPKc(ptr noundef %12)
  br label %15

14:                                               ; preds = %2
  br label %15

15:                                               ; preds = %14, %11
  %16 = phi i64 [ %13, %11 ], [ 0, %14 ]
  store i64 %16, ptr %8, align 8
  ret void
}

; Function Attrs: mustprogress nounwind uwtable
define linkonce_odr hidden noundef signext i8 @_ZNK4llvm9StringRefixEm(ptr noundef nonnull align 8 dereferenceable(16) %0, i64 noundef %1) #0 comdat align 2 {
  %3 = alloca ptr, align 8
  %4 = alloca i64, align 8
  store ptr %0, ptr %3, align 8
  store i64 %1, ptr %4, align 8
  %5 = load ptr, ptr %3, align 8
  %6 = getelementptr inbounds nuw %"class.llvm::StringRef", ptr %5, i32 0, i32 0
  %7 = load ptr, ptr %6, align 8
  %8 = load i64, ptr %4, align 8
  %9 = getelementptr inbounds i8, ptr %7, i64 %8
  %10 = load i8, ptr %9, align 1
  ret i8 %10
}

; Function Attrs: mustprogress nounwind uwtable
define hidden noundef zeroext i1 @_ZNK5clang7targets13X86TargetInfo19validateOperandSizeERKN4llvm9StringMapIbNS2_15MallocAllocatorEEENS2_9StringRefEj(ptr noundef nonnull align 8 dereferenceable(616) %0, ptr noundef nonnull align 8 dereferenceable(24) %1, ptr %2, i64 %3, i32 noundef %4) unnamed_addr #0 align 2 {
  %6 = alloca i1, align 1
  %7 = alloca %"class.llvm::StringRef", align 8
  %8 = alloca ptr, align 8
  %9 = alloca ptr, align 8
  %10 = alloca i32, align 4
  %11 = alloca %"class.llvm::StringRef", align 8
  %12 = alloca %"class.llvm::StringRef", align 8
  %13 = alloca %"class.llvm::StringRef", align 8
  %14 = alloca %"class.llvm::StringRef", align 8
  %15 = alloca %"class.llvm::StringRef", align 8
  %16 = alloca %"class.llvm::StringRef", align 8
  %17 = alloca %"class.llvm::StringRef", align 8
  %18 = getelementptr inbounds nuw { ptr, i64 }, ptr %7, i32 0, i32 0
  store ptr %2, ptr %18, align 8
  %19 = getelementptr inbounds nuw { ptr, i64 }, ptr %7, i32 0, i32 1
  store i64 %3, ptr %19, align 8
  store ptr %0, ptr %8, align 8
  store ptr %1, ptr %9, align 8
  store i32 %4, ptr %10, align 4
  %20 = load ptr, ptr %8, align 8
  %21 = call noundef signext i8 @_ZNK4llvm9StringRefixEm(ptr noundef nonnull align 8 dereferenceable(16) %7, i64 noundef 0)
  %22 = sext i8 %21 to i32
  switch i32 %22, label %23 [
    i32 107, label %24
    i32 121, label %24
    i32 102, label %27
    i32 116, label %27
    i32 117, label %27
    i32 89, label %30
    i32 118, label %96
    i32 120, label %96
  ]

23:                                               ; preds = %5
  br label %136

24:                                               ; preds = %5, %5
  %25 = load i32, ptr %10, align 4
  %26 = icmp ule i32 %25, 64
  store i1 %26, ptr %6, align 1
  br label %137

27:                                               ; preds = %5, %5, %5
  %28 = load i32, ptr %10, align 4
  %29 = icmp ule i32 %28, 128
  store i1 %29, ptr %6, align 1
  br label %137

30:                                               ; preds = %5
  %31 = call noundef signext i8 @_ZNK4llvm9StringRefixEm(ptr noundef nonnull align 8 dereferenceable(16) %7, i64 noundef 1)
  %32 = sext i8 %31 to i32
  switch i32 %32, label %33 [
    i32 109, label %34
    i32 107, label %34
    i32 122, label %37
    i32 105, label %89
    i32 116, label %89
    i32 50, label %89
  ]

33:                                               ; preds = %30
  store i1 false, ptr %6, align 1
  br label %137

34:                                               ; preds = %30, %30
  %35 = load i32, ptr %10, align 4
  %36 = icmp ule i32 %35, 64
  store i1 %36, ptr %6, align 1
  br label %137

37:                                               ; preds = %30
  %38 = load ptr, ptr %9, align 8
  call void @_ZN4llvm9StringRefC2EPKc(ptr noundef nonnull align 8 dereferenceable(16) %11, ptr noundef @.str.3)
  %39 = getelementptr inbounds nuw { ptr, i64 }, ptr %11, i32 0, i32 0
  %40 = load ptr, ptr %39, align 8
  %41 = getelementptr inbounds nuw { ptr, i64 }, ptr %11, i32 0, i32 1
  %42 = load i64, ptr %41, align 8
  %43 = load ptr, ptr %20, align 8
  %44 = getelementptr inbounds ptr, ptr %43, i64 65
  %45 = load ptr, ptr %44, align 8
  %46 = call noundef zeroext i1 %45(ptr noundef nonnull align 8 dereferenceable(489) %20, ptr noundef nonnull align 8 dereferenceable(24) %38, ptr %40, i64 %42)
  br i1 %46, label %47, label %60

47:                                               ; preds = %37
  %48 = load ptr, ptr %9, align 8
  call void @_ZN4llvm9StringRefC2EPKc(ptr noundef nonnull align 8 dereferenceable(16) %12, ptr noundef @.str.370)
  %49 = getelementptr inbounds nuw { ptr, i64 }, ptr %12, i32 0, i32 0
  %50 = load ptr, ptr %49, align 8
  %51 = getelementptr inbounds nuw { ptr, i64 }, ptr %12, i32 0, i32 1
  %52 = load i64, ptr %51, align 8
  %53 = load ptr, ptr %20, align 8
  %54 = getelementptr inbounds ptr, ptr %53, i64 65
  %55 = load ptr, ptr %54, align 8
  %56 = call noundef zeroext i1 %55(ptr noundef nonnull align 8 dereferenceable(489) %20, ptr noundef nonnull align 8 dereferenceable(24) %48, ptr %50, i64 %52)
  br i1 %56, label %57, label %60

57:                                               ; preds = %47
  %58 = load i32, ptr %10, align 4
  %59 = icmp ule i32 %58, 512
  store i1 %59, ptr %6, align 1
  br label %137

60:                                               ; preds = %47, %37
  %61 = load ptr, ptr %9, align 8
  call void @_ZN4llvm9StringRefC2EPKc(ptr noundef nonnull align 8 dereferenceable(16) %13, ptr noundef @.str.26)
  %62 = getelementptr inbounds nuw { ptr, i64 }, ptr %13, i32 0, i32 0
  %63 = load ptr, ptr %62, align 8
  %64 = getelementptr inbounds nuw { ptr, i64 }, ptr %13, i32 0, i32 1
  %65 = load i64, ptr %64, align 8
  %66 = load ptr, ptr %20, align 8
  %67 = getelementptr inbounds ptr, ptr %66, i64 65
  %68 = load ptr, ptr %67, align 8
  %69 = call noundef zeroext i1 %68(ptr noundef nonnull align 8 dereferenceable(489) %20, ptr noundef nonnull align 8 dereferenceable(24) %61, ptr %63, i64 %65)
  br i1 %69, label %70, label %73

70:                                               ; preds = %60
  %71 = load i32, ptr %10, align 4
  %72 = icmp ule i32 %71, 256
  store i1 %72, ptr %6, align 1
  br label %137

73:                                               ; preds = %60
  %74 = load ptr, ptr %9, align 8
  call void @_ZN4llvm9StringRefC2EPKc(ptr noundef nonnull align 8 dereferenceable(16) %14, ptr noundef @.str.1)
  %75 = getelementptr inbounds nuw { ptr, i64 }, ptr %14, i32 0, i32 0
  %76 = load ptr, ptr %75, align 8
  %77 = getelementptr inbounds nuw { ptr, i64 }, ptr %14, i32 0, i32 1
  %78 = load i64, ptr %77, align 8
  %79 = load ptr, ptr %20, align 8
  %80 = getelementptr inbounds ptr, ptr %79, i64 65
  %81 = load ptr, ptr %80, align 8
  %82 = call noundef zeroext i1 %81(ptr noundef nonnull align 8 dereferenceable(489) %20, ptr noundef nonnull align 8 dereferenceable(24) %74, ptr %76, i64 %78)
  br i1 %82, label %83, label %86

83:                                               ; preds = %73
  %84 = load i32, ptr %10, align 4
  %85 = icmp ule i32 %84, 128
  store i1 %85, ptr %6, align 1
  br label %137

86:                                               ; preds = %73
  br label %87

87:                                               ; preds = %86
  br label %88

88:                                               ; preds = %87
  store i1 false, ptr %6, align 1
  br label %137

89:                                               ; preds = %30, %30, %30
  %90 = getelementptr inbounds nuw %"class.clang::targets::X86TargetInfo", ptr %20, i32 0, i32 1
  %91 = load i32, ptr %90, align 4
  %92 = icmp slt i32 %91, 2
  br i1 %92, label %93, label %94

93:                                               ; preds = %89
  store i1 false, ptr %6, align 1
  br label %137

94:                                               ; preds = %89
  br label %95

95:                                               ; preds = %94
  br label %136

96:                                               ; preds = %5, %5
  %97 = load ptr, ptr %9, align 8
  call void @_ZN4llvm9StringRefC2EPKc(ptr noundef nonnull align 8 dereferenceable(16) %15, ptr noundef @.str.3)
  %98 = getelementptr inbounds nuw { ptr, i64 }, ptr %15, i32 0, i32 0
  %99 = load ptr, ptr %98, align 8
  %100 = getelementptr inbounds nuw { ptr, i64 }, ptr %15, i32 0, i32 1
  %101 = load i64, ptr %100, align 8
  %102 = load ptr, ptr %20, align 8
  %103 = getelementptr inbounds ptr, ptr %102, i64 65
  %104 = load ptr, ptr %103, align 8
  %105 = call noundef zeroext i1 %104(ptr noundef nonnull align 8 dereferenceable(489) %20, ptr noundef nonnull align 8 dereferenceable(24) %97, ptr %99, i64 %101)
  br i1 %105, label %106, label %119

106:                                              ; preds = %96
  %107 = load ptr, ptr %9, align 8
  call void @_ZN4llvm9StringRefC2EPKc(ptr noundef nonnull align 8 dereferenceable(16) %16, ptr noundef @.str.370)
  %108 = getelementptr inbounds nuw { ptr, i64 }, ptr %16, i32 0, i32 0
  %109 = load ptr, ptr %108, align 8
  %110 = getelementptr inbounds nuw { ptr, i64 }, ptr %16, i32 0, i32 1
  %111 = load i64, ptr %110, align 8
  %112 = load ptr, ptr %20, align 8
  %113 = getelementptr inbounds ptr, ptr %112, i64 65
  %114 = load ptr, ptr %113, align 8
  %115 = call noundef zeroext i1 %114(ptr noundef nonnull align 8 dereferenceable(489) %20, ptr noundef nonnull align 8 dereferenceable(24) %107, ptr %109, i64 %111)
  br i1 %115, label %116, label %119

116:                                              ; preds = %106
  %117 = load i32, ptr %10, align 4
  %118 = icmp ule i32 %117, 512
  store i1 %118, ptr %6, align 1
  br label %137

119:                                              ; preds = %106, %96
  %120 = load ptr, ptr %9, align 8
  call void @_ZN4llvm9StringRefC2EPKc(ptr noundef nonnull align 8 dereferenceable(16) %17, ptr noundef @.str.26)
  %121 = getelementptr inbounds nuw { ptr, i64 }, ptr %17, i32 0, i32 0
  %122 = load ptr, ptr %121, align 8
  %123 = getelementptr inbounds nuw { ptr, i64 }, ptr %17, i32 0, i32 1
  %124 = load i64, ptr %123, align 8
  %125 = load ptr, ptr %20, align 8
  %126 = getelementptr inbounds ptr, ptr %125, i64 65
  %127 = load ptr, ptr %126, align 8
  %128 = call noundef zeroext i1 %127(ptr noundef nonnull align 8 dereferenceable(489) %20, ptr noundef nonnull align 8 dereferenceable(24) %120, ptr %122, i64 %124)
  br i1 %128, label %129, label %132

129:                                              ; preds = %119
  %130 = load i32, ptr %10, align 4
  %131 = icmp ule i32 %130, 256
  store i1 %131, ptr %6, align 1
  br label %137

132:                                              ; preds = %119
  br label %133

133:                                              ; preds = %132
  %134 = load i32, ptr %10, align 4
  %135 = icmp ule i32 %134, 128
  store i1 %135, ptr %6, align 1
  br label %137

136:                                              ; preds = %95, %23
  store i1 true, ptr %6, align 1
  br label %137

137:                                              ; preds = %136, %133, %129, %116, %93, %88, %83, %70, %57, %34, %33, %27, %24
  %138 = load i1, ptr %6, align 1
  ret i1 %138
}