; Function Attrs: mustprogress nounwind uwtable
define hidden noundef zeroext i1 @_ZNK5clang7targets13X86TargetInfo19validateOperandSizeERKN4llvm9StringMapIbNS2_15MallocAllocatorEEENS2_9StringRefEj(ptr noundef nonnull align 8 dereferenceable(616) %0, ptr noundef nonnull align 8 dereferenceable(24) %1, ptr nocapture readonly %2, i64 %3, i32 noundef %4) unnamed_addr #2 align 2 {
  %6 = load i8, ptr %2, align 1
  switch i8 %6, label %66 [
    i8 107, label %7
    i8 121, label %7
    i8 102, label %9
    i8 116, label %9
    i8 117, label %9
    i8 89, label %11
    i8 118, label %45
    i8 120, label %45
  ]

7:                                                ; preds = %5, %5
  %8 = icmp ult i32 %4, 65
  br label %67

9:                                                ; preds = %5, %5, %5
  %10 = icmp ult i32 %4, 129
  br label %67

11:                                               ; preds = %5
  %12 = getelementptr inbounds i8, ptr %2, i64 1
  %13 = load i8, ptr %12, align 1
  switch i8 %13, label %67 [
    i8 109, label %14
    i8 107, label %14
    i8 122, label %16
    i8 105, label %41
    i8 116, label %41
    i8 50, label %41
  ]

14:                                               ; preds = %11, %11
  %15 = icmp ult i32 %4, 65
  br label %67

16:                                               ; preds = %11
  %17 = load ptr, ptr %0, align 8
  %18 = getelementptr inbounds i8, ptr %17, i64 520
  %19 = load ptr, ptr %18, align 8
  %20 = tail call noundef zeroext i1 %19(ptr noundef nonnull align 8 dereferenceable(489) %0, ptr noundef nonnull align 8 dereferenceable(24) %1, ptr nonnull @.str.3, i64 7) #21
  br i1 %20, label %21, label %28

21:                                               ; preds = %16
  %22 = load ptr, ptr %0, align 8
  %23 = getelementptr inbounds i8, ptr %22, i64 520
  %24 = load ptr, ptr %23, align 8
  %25 = tail call noundef zeroext i1 %24(ptr noundef nonnull align 8 dereferenceable(489) %0, ptr noundef nonnull align 8 dereferenceable(24) %1, ptr nonnull @.str.370, i64 7) #21
  br i1 %25, label %26, label %28

26:                                               ; preds = %21
  %27 = icmp ult i32 %4, 513
  br label %67

28:                                               ; preds = %21, %16
  %29 = load ptr, ptr %0, align 8
  %30 = getelementptr inbounds i8, ptr %29, i64 520
  %31 = load ptr, ptr %30, align 8
  %32 = tail call noundef zeroext i1 %31(ptr noundef nonnull align 8 dereferenceable(489) %0, ptr noundef nonnull align 8 dereferenceable(24) %1, ptr nonnull @.str.26, i64 3) #21
  br i1 %32, label %33, label %35

33:                                               ; preds = %28
  %34 = icmp ult i32 %4, 257
  br label %67

35:                                               ; preds = %28
  %36 = load ptr, ptr %0, align 8
  %37 = getelementptr inbounds i8, ptr %36, i64 520
  %38 = load ptr, ptr %37, align 8
  %39 = tail call noundef zeroext i1 %38(ptr noundef nonnull align 8 dereferenceable(489) %0, ptr noundef nonnull align 8 dereferenceable(24) %1, ptr nonnull @.str.1, i64 3) #21
  %40 = icmp ult i32 %4, 129
  %spec.select = and i1 %40, %39
  br label %67

41:                                               ; preds = %11, %11, %11
  %42 = getelementptr inbounds nuw i8, ptr %0, i64 492
  %43 = load i32, ptr %42, align 4
  %44 = icmp slt i32 %43, 2
  br i1 %44, label %67, label %66

45:                                               ; preds = %5, %5
  %46 = load ptr, ptr %0, align 8
  %47 = getelementptr inbounds i8, ptr %46, i64 520
  %48 = load ptr, ptr %47, align 8
  %49 = tail call noundef zeroext i1 %48(ptr noundef nonnull align 8 dereferenceable(489) %0, ptr noundef nonnull align 8 dereferenceable(24) %1, ptr nonnull @.str.3, i64 7) #21
  br i1 %49, label %50, label %57

50:                                               ; preds = %45
  %51 = load ptr, ptr %0, align 8
  %52 = getelementptr inbounds i8, ptr %51, i64 520
  %53 = load ptr, ptr %52, align 8
  %54 = tail call noundef zeroext i1 %53(ptr noundef nonnull align 8 dereferenceable(489) %0, ptr noundef nonnull align 8 dereferenceable(24) %1, ptr nonnull @.str.370, i64 7) #21
  br i1 %54, label %55, label %57

55:                                               ; preds = %50
  %56 = icmp ult i32 %4, 513
  br label %67

57:                                               ; preds = %50, %45
  %58 = load ptr, ptr %0, align 8
  %59 = getelementptr inbounds i8, ptr %58, i64 520
  %60 = load ptr, ptr %59, align 8
  %61 = tail call noundef zeroext i1 %60(ptr noundef nonnull align 8 dereferenceable(489) %0, ptr noundef nonnull align 8 dereferenceable(24) %1, ptr nonnull @.str.26, i64 3) #21
  br i1 %61, label %62, label %64

62:                                               ; preds = %57
  %63 = icmp ult i32 %4, 257
  br label %67

64:                                               ; preds = %57
  %65 = icmp ult i32 %4, 129
  br label %67

66:                                               ; preds = %41, %5
  br label %67

67:                                               ; preds = %35, %41, %11, %66, %64, %62, %55, %33, %26, %14, %9, %7
  %.0 = phi i1 [ true, %66 ], [ %56, %55 ], [ %63, %62 ], [ %65, %64 ], [ %27, %26 ], [ %34, %33 ], [ %15, %14 ], [ %10, %9 ], [ %8, %7 ], [ false, %11 ], [ false, %41 ], [ %spec.select, %35 ]
  ret i1 %.0
}